; Function Attrs: nounwind uwtable
define dso_local void @write_and_free(ptr noundef %0, ptr noundef %1, i32 noundef %2) local_unnamed_addr #1 {
  %.not = icmp eq ptr %1, null
  br i1 %.not, label %33, label %4

4:                                                ; preds = %3
  %5 = getelementptr inbounds nuw i8, ptr %0, i64 208
  %6 = load ptr, ptr %5, align 8, !tbaa !118
  %7 = getelementptr inbounds nuw i8, ptr %6, i64 24
  store ptr %1, ptr %7, align 8, !tbaa !112
  %8 = getelementptr inbounds nuw i8, ptr %6, i64 116
  %9 = load i8, ptr %8, align 4, !tbaa !162
  %10 = getelementptr inbounds nuw i8, ptr %6, i64 48
  %11 = zext i8 %9 to i64
  %12 = getelementptr inbounds nuw [4 x %struct.iovec], ptr %10, i64 0, i64 %11
  store ptr %1, ptr %12, align 8, !tbaa !122
  %13 = sext i32 %2 to i64
  %14 = getelementptr inbounds nuw i8, ptr %12, i64 8
  store i64 %13, ptr %14, align 8, !tbaa !124
  %15 = add i8 %9, 1
  store i8 %15, ptr %8, align 4, !tbaa !162
  %16 = getelementptr inbounds nuw i8, ptr %6, i64 20
  %17 = load i32, ptr %16, align 4, !tbaa !126
  %18 = add nsw i32 %17, %2
  store i32 %18, ptr %16, align 4, !tbaa !126
  %19 = getelementptr inbounds nuw i8, ptr %0, i64 32
  %20 = load i32, ptr %19, align 8, !tbaa !48
  %.not.i = icmp eq i32 %20, 1
  br i1 %.not.i, label %conn_set_state.exit, label %21

21:                                               ; preds = %4
  %22 = load i32, ptr getelementptr inbounds nuw (i8, ptr @settings, i64 32), align 8, !tbaa !49
  %23 = icmp sgt i32 %22, 2
  br i1 %23, label %24, label %32

24:                                               ; preds = %21
  %25 = load ptr, ptr @stderr, align 8, !tbaa !50
  %26 = getelementptr inbounds nuw i8, ptr %0, i64 8
  %27 = load i32, ptr %26, align 8, !tbaa !52
  %28 = zext i32 %20 to i64
  %29 = getelementptr inbounds nuw [15 x ptr], ptr @__const.state_text.statenames, i64 0, i64 %28
  %30 = load ptr, ptr %29, align 8, !tbaa !55
  %31 = tail call i32 (ptr, ptr, ...) @fprintf(ptr noundef %25, ptr noundef nonnull @.str.15, i32 noundef %27, ptr noundef %30, ptr noundef nonnull @.str.368) #36
  br label %32

32:                                               ; preds = %24, %21
  store i32 1, ptr %19, align 8, !tbaa !48
  br label %conn_set_state.exit

33:                                               ; preds = %3
  %34 = getelementptr inbounds nuw i8, ptr %0, i64 260
  %35 = load i32, ptr %34, align 4, !tbaa !67
  %36 = icmp eq i32 %35, 4
  br i1 %36, label %37, label %38

37:                                               ; preds = %33
  tail call void @write_bin_error(ptr noundef nonnull %0, i32 noundef 130, ptr noundef nonnull getelementptr inbounds nuw (i8, ptr @.str.21, i64 13), i32 noundef 0) #34
  br label %conn_set_state.exit

38:                                               ; preds = %33
  tail call void @out_string(ptr noundef nonnull %0, ptr noundef nonnull @.str.21)
  br label %conn_set_state.exit

conn_set_state.exit:                              ; preds = %38, %37, %32, %4
  ret void
}